target datalayout = "e-m:e-p270:32:32-p271:32:32-p272:64:64-i64:64-i128:128-f80:128-n8:16:32:64-S128"
target triple = "x86_64-unknown-linux-gnu"

%class.btVector3 = type { [4 x float] }
%class.btAlignedObjectArray.0 = type <{ %class.btAlignedAllocator.1, [3 x i8], i32, i32, [4 x i8], ptr, i8, [7 x i8] }>
%class.btAlignedAllocator.1 = type { i8 }
%class.btDeformableContactProjection = type <{ ptr, ptr, %class.btAlignedObjectArray.8, %class.btHashMap, %class.btAlignedObjectArray.20, %class.btAlignedObjectArray.24, %class.btAlignedObjectArray.28, %class.btAlignedObjectArray.32, %class.btAlignedObjectArray.36, %class.btAlignedObjectArray.40, i8, [7 x i8] }>
%class.btAlignedObjectArray.8 = type <{ %class.btAlignedAllocator.9, [3 x i8], i32, i32, [4 x i8], ptr, i8, [7 x i8] }>
%class.btAlignedAllocator.9 = type { i8 }
%class.btHashMap = type { %class.btAlignedObjectArray.0, %class.btAlignedObjectArray.0, %class.btAlignedObjectArray.12, %class.btAlignedObjectArray.16 }
%class.btAlignedObjectArray.12 = type <{ %class.btAlignedAllocator.13, [3 x i8], i32, i32, [4 x i8], ptr, i8, [7 x i8] }>
%class.btAlignedAllocator.13 = type { i8 }
%class.btAlignedObjectArray.16 = type <{ %class.btAlignedAllocator.17, [3 x i8], i32, i32, [4 x i8], ptr, i8, [7 x i8] }>
%class.btAlignedAllocator.17 = type { i8 }
%class.btAlignedObjectArray.20 = type <{ %class.btAlignedAllocator.21, [3 x i8], i32, i32, [4 x i8], ptr, i8, [7 x i8] }>
%class.btAlignedAllocator.21 = type { i8 }
%class.btAlignedObjectArray.24 = type <{ %class.btAlignedAllocator.25, [3 x i8], i32, i32, [4 x i8], ptr, i8, [7 x i8] }>
%class.btAlignedAllocator.25 = type { i8 }
%class.btAlignedObjectArray.28 = type <{ %class.btAlignedAllocator.29, [3 x i8], i32, i32, [4 x i8], ptr, i8, [7 x i8] }>
%class.btAlignedAllocator.29 = type { i8 }
%class.btAlignedObjectArray.32 = type <{ %class.btAlignedAllocator.33, [3 x i8], i32, i32, [4 x i8], ptr, i8, [7 x i8] }>
%class.btAlignedAllocator.33 = type { i8 }
%class.btAlignedObjectArray.36 = type <{ %class.btAlignedAllocator.37, [3 x i8], i32, i32, [4 x i8], ptr, i8, [7 x i8] }>
%class.btAlignedAllocator.37 = type { i8 }
%class.btAlignedObjectArray.40 = type <{ %class.btAlignedAllocator.41, [3 x i8], i32, i32, [4 x i8], ptr, i8, [7 x i8] }>
%class.btAlignedAllocator.41 = type { i8 }
%class.btAlignedObjectArray.44 = type <{ %class.btAlignedAllocator.45, [3 x i8], i32, i32, [4 x i8], ptr, i8, [7 x i8] }>
%class.btAlignedAllocator.45 = type { i8 }
%class.btAlignedObjectArray.152 = type <{ %class.btAlignedAllocator.153, [3 x i8], i32, i32, [4 x i8], ptr, i8, [7 x i8] }>
%class.btAlignedAllocator.153 = type { i8 }
%class.btDeformableNodeRigidContactConstraint = type { %class.btDeformableRigidContactConstraint, ptr }
%class.btDeformableRigidContactConstraint = type { %class.btDeformableContactConstraint, %class.btVector3, %class.btVector3, float, float, i8, ptr }
%class.btDeformableContactConstraint = type { ptr, i8, ptr, %class.btVector3 }
%class.btAlignedObjectArray.160 = type <{ %class.btAlignedAllocator.161, [3 x i8], i32, i32, [4 x i8], ptr, i8, [7 x i8] }>
%class.btAlignedAllocator.161 = type { i8 }
%class.btDeformableFaceRigidContactConstraint = type <{ %class.btDeformableRigidContactConstraint, ptr, i8, [7 x i8] }>

; Function Attrs: mustprogress nounwind uwtable
define linkonce_odr dso_local noundef nonnull align 8 dereferenceable(105) ptr @_ZN20btAlignedObjectArrayI38btDeformableFaceRigidContactConstraintEixEi(ptr noundef nonnull align 8 dereferenceable(25) %this, i32 noundef %n) #1 comdat align 2 {
entry:
  %this.addr = alloca ptr, align 8
  %n.addr = alloca i32, align 4
  store ptr %this, ptr %this.addr, align 8
  store i32 %n, ptr %n.addr, align 4
  %this1 = load ptr, ptr %this.addr, align 8
  %m_data = getelementptr inbounds %class.btAlignedObjectArray.160, ptr %this1, i32 0, i32 5
  %0 = load ptr, ptr %m_data, align 8
  %1 = load i32, ptr %n.addr, align 4
  %idxprom = sext i32 %1 to i64
  %arrayidx = getelementptr inbounds %class.btDeformableFaceRigidContactConstraint, ptr %0, i64 %idxprom
  ret ptr %arrayidx
}

; Function Attrs: mustprogress nounwind uwtable
define linkonce_odr dso_local noundef i32 @_ZNK20btAlignedObjectArrayI38btDeformableFaceRigidContactConstraintE4sizeEv(ptr noundef nonnull align 8 dereferenceable(25) %this) #1 comdat align 2 {
entry:
  %this.addr = alloca ptr, align 8
  store ptr %this, ptr %this.addr, align 8
  %this1 = load ptr, ptr %this.addr, align 8
  %m_size = getelementptr inbounds %class.btAlignedObjectArray.160, ptr %this1, i32 0, i32 2
  %0 = load i32, ptr %m_size, align 4
  ret i32 %0
}

; Function Attrs: mustprogress nounwind uwtable
define linkonce_odr dso_local noundef nonnull align 8 dereferenceable(25) ptr @_ZN20btAlignedObjectArrayIS_I38btDeformableFaceRigidContactConstraintEEixEi(ptr noundef nonnull align 8 dereferenceable(25) %this, i32 noundef %n) #1 comdat align 2 {
entry:
  %this.addr = alloca ptr, align 8
  %n.addr = alloca i32, align 4
  store ptr %this, ptr %this.addr, align 8
  store i32 %n, ptr %n.addr, align 4
  %this1 = load ptr, ptr %this.addr, align 8
  %m_data = getelementptr inbounds %class.btAlignedObjectArray.32, ptr %this1, i32 0, i32 5
  %0 = load ptr, ptr %m_data, align 8
  %1 = load i32, ptr %n.addr, align 4
  %idxprom = sext i32 %1 to i64
  %arrayidx = getelementptr inbounds %class.btAlignedObjectArray.160, ptr %0, i64 %idxprom
  ret ptr %arrayidx
}

; Function Attrs: mustprogress nounwind uwtable
define linkonce_odr dso_local noundef nonnull align 4 dereferenceable(4) ptr @_Z5btMaxIfERKT_S2_S2_(ptr noundef nonnull align 4 dereferenceable(4) %a, ptr noundef nonnull align 4 dereferenceable(4) %b) #1 comdat {
entry:
  %a.addr = alloca ptr, align 8
  %b.addr = alloca ptr, align 8
  store ptr %a, ptr %a.addr, align 8
  store ptr %b, ptr %b.addr, align 8
  %0 = load ptr, ptr %a.addr, align 8
  %1 = load float, ptr %0, align 4
  %2 = load ptr, ptr %b.addr, align 8
  %3 = load float, ptr %2, align 4
  %cmp = fcmp ogt float %1, %3
  br i1 %cmp, label %cond.true, label %cond.false

cond.true:                                        ; preds = %entry
  %4 = load ptr, ptr %a.addr, align 8
  br label %cond.end

cond.false:                                       ; preds = %entry
  %5 = load ptr, ptr %b.addr, align 8
  br label %cond.end

cond.end:                                         ; preds = %cond.false, %cond.true
  %cond-lvalue = phi ptr [ %4, %cond.true ], [ %5, %cond.false ]
  ret ptr %cond-lvalue
}

; Function Attrs: mustprogress nounwind uwtable
define linkonce_odr dso_local noundef nonnull align 8 dereferenceable(104) ptr @_ZN20btAlignedObjectArrayI38btDeformableNodeRigidContactConstraintEixEi(ptr noundef nonnull align 8 dereferenceable(25) %this, i32 noundef %n) #1 comdat align 2 {
entry:
  %this.addr = alloca ptr, align 8
  %n.addr = alloca i32, align 4
  store ptr %this, ptr %this.addr, align 8
  store i32 %n, ptr %n.addr, align 4
  %this1 = load ptr, ptr %this.addr, align 8
  %m_data = getelementptr inbounds %class.btAlignedObjectArray.152, ptr %this1, i32 0, i32 5
  %0 = load ptr, ptr %m_data, align 8
  %1 = load i32, ptr %n.addr, align 4
  %idxprom = sext i32 %1 to i64
  %arrayidx = getelementptr inbounds %class.btDeformableNodeRigidContactConstraint, ptr %0, i64 %idxprom
  ret ptr %arrayidx
}

; Function Attrs: mustprogress nounwind uwtable
define linkonce_odr dso_local noundef i32 @_ZNK20btAlignedObjectArrayI38btDeformableNodeRigidContactConstraintE4sizeEv(ptr noundef nonnull align 8 dereferenceable(25) %this) #1 comdat align 2 {
entry:
  %this.addr = alloca ptr, align 8
  store ptr %this, ptr %this.addr, align 8
  %this1 = load ptr, ptr %this.addr, align 8
  %m_size = getelementptr inbounds %class.btAlignedObjectArray.152, ptr %this1, i32 0, i32 2
  %0 = load i32, ptr %m_size, align 4
  ret i32 %0
}

; Function Attrs: mustprogress nounwind uwtable
define linkonce_odr dso_local noundef nonnull align 8 dereferenceable(25) ptr @_ZN20btAlignedObjectArrayIS_I38btDeformableNodeRigidContactConstraintEEixEi(ptr noundef nonnull align 8 dereferenceable(25) %this, i32 noundef %n) #1 comdat align 2 {
entry:
  %this.addr = alloca ptr, align 8
  %n.addr = alloca i32, align 4
  store ptr %this, ptr %this.addr, align 8
  store i32 %n, ptr %n.addr, align 4
  %this1 = load ptr, ptr %this.addr, align 8
  %m_data = getelementptr inbounds %class.btAlignedObjectArray.28, ptr %this1, i32 0, i32 5
  %0 = load ptr, ptr %m_data, align 8
  %1 = load i32, ptr %n.addr, align 4
  %idxprom = sext i32 %1 to i64
  %arrayidx = getelementptr inbounds %class.btAlignedObjectArray.152, ptr %0, i64 %idxprom
  ret ptr %arrayidx
}

; Function Attrs: mustprogress nounwind uwtable
define linkonce_odr dso_local noundef nonnull align 8 dereferenceable(8) ptr @_ZN20btAlignedObjectArrayIP10btSoftBodyEixEi(ptr noundef nonnull align 8 dereferenceable(25) %this, i32 noundef %n) #1 comdat align 2 {
entry:
  %this.addr = alloca ptr, align 8
  %n.addr = alloca i32, align 4
  store ptr %this, ptr %this.addr, align 8
  store i32 %n, ptr %n.addr, align 4
  %this1 = load ptr, ptr %this.addr, align 8
  %m_data = getelementptr inbounds %class.btAlignedObjectArray.44, ptr %this1, i32 0, i32 5
  %0 = load ptr, ptr %m_data, align 8
  %1 = load i32, ptr %n.addr, align 4
  %idxprom = sext i32 %1 to i64
  %arrayidx = getelementptr inbounds ptr, ptr %0, i64 %idxprom
  ret ptr %arrayidx
}

; Function Attrs: mustprogress nounwind uwtable
define linkonce_odr dso_local noundef i32 @_ZNK20btAlignedObjectArrayIP10btSoftBodyE4sizeEv(ptr noundef nonnull align 8 dereferenceable(25) %this) #1 comdat align 2 {
entry:
  %this.addr = alloca ptr, align 8
  store ptr %this, ptr %this.addr, align 8
  %this1 = load ptr, ptr %this.addr, align 8
  %m_size = getelementptr inbounds %class.btAlignedObjectArray.44, ptr %this1, i32 0, i32 2
  %0 = load i32, ptr %m_size, align 4
  ret i32 %0
}

; Function Attrs: mustprogress uwtable
define dso_local noundef float @_ZN29btDeformableContactProjection17solveSplitImpulseEPP17btCollisionObjectiRK19btContactSolverInfo(ptr noundef nonnull align 8 dereferenceable(369) %this, ptr noundef %deformableBodies, i32 noundef %numDeformableBodies, ptr noundef nonnull align 4 dereferenceable(128) %infoGlobal) #5 align 2 {
entry:
  %this.addr = alloca ptr, align 8
  %deformableBodies.addr = alloca ptr, align 8
  %numDeformableBodies.addr = alloca i32, align 4
  %infoGlobal.addr = alloca ptr, align 8
  %residualSquare = alloca float, align 4
  %i = alloca i32, align 4
  %j = alloca i32, align 4
  %psb = alloca ptr, align 8
  %k = alloca i32, align 4
  %constraint = alloca ptr, align 8
  %localResidualSquare = alloca float, align 4
  %k18 = alloca i32, align 4
  %constraint24 = alloca ptr, align 8
  %localResidualSquare28 = alloca float, align 4
  store ptr %this, ptr %this.addr, align 8
  store ptr %deformableBodies, ptr %deformableBodies.addr, align 8
  store i32 %numDeformableBodies, ptr %numDeformableBodies.addr, align 4
  store ptr %infoGlobal, ptr %infoGlobal.addr, align 8
  %this1 = load ptr, ptr %this.addr, align 8
  store float 0.000000e+00, ptr %residualSquare, align 4
  store i32 0, ptr %i, align 4
  br label %for.cond

for.cond:                                         ; preds = %for.inc37, %entry
  %0 = load i32, ptr %i, align 4
  %1 = load i32, ptr %numDeformableBodies.addr, align 4
  %cmp = icmp slt i32 %0, %1
  br i1 %cmp, label %for.body, label %for.end39

for.body:                                         ; preds = %for.cond
  store i32 0, ptr %j, align 4
  br label %for.cond2

for.cond2:                                        ; preds = %for.inc34, %for.body
  %2 = load i32, ptr %j, align 4
  %m_softBodies = getelementptr inbounds %class.btDeformableContactProjection, ptr %this1, i32 0, i32 1
  %3 = load ptr, ptr %m_softBodies, align 8
  %call = call noundef i32 @_ZNK20btAlignedObjectArrayIP10btSoftBodyE4sizeEv(ptr noundef nonnull align 8 dereferenceable(25) %3)
  %cmp3 = icmp slt i32 %2, %call
  br i1 %cmp3, label %for.body4, label %for.end36

for.body4:                                        ; preds = %for.cond2
  %m_softBodies5 = getelementptr inbounds %class.btDeformableContactProjection, ptr %this1, i32 0, i32 1
  %4 = load ptr, ptr %m_softBodies5, align 8
  %5 = load i32, ptr %j, align 4
  %call6 = call noundef nonnull align 8 dereferenceable(8) ptr @_ZN20btAlignedObjectArrayIP10btSoftBodyEixEi(ptr noundef nonnull align 8 dereferenceable(25) %4, i32 noundef %5)
  %6 = load ptr, ptr %call6, align 8
  store ptr %6, ptr %psb, align 8
  %7 = load ptr, ptr %psb, align 8
  %8 = load ptr, ptr %deformableBodies.addr, align 8
  %9 = load i32, ptr %i, align 4
  %idxprom = sext i32 %9 to i64
  %arrayidx = getelementptr inbounds ptr, ptr %8, i64 %idxprom
  %10 = load ptr, ptr %arrayidx, align 8
  %cmp7 = icmp ne ptr %7, %10
  br i1 %cmp7, label %if.then, label %if.end

if.then:                                          ; preds = %for.body4
  br label %for.inc34

if.end:                                           ; preds = %for.body4
  store i32 0, ptr %k, align 4
  br label %for.cond8

for.cond8:                                        ; preds = %for.inc, %if.end
  %11 = load i32, ptr %k, align 4
  %m_nodeRigidConstraints = getelementptr inbounds %class.btDeformableContactProjection, ptr %this1, i32 0, i32 6
  %12 = load i32, ptr %j, align 4
  %call9 = call noundef nonnull align 8 dereferenceable(25) ptr @_ZN20btAlignedObjectArrayIS_I38btDeformableNodeRigidContactConstraintEEixEi(ptr noundef nonnull align 8 dereferenceable(25) %m_nodeRigidConstraints, i32 noundef %12)
  %call10 = call noundef i32 @_ZNK20btAlignedObjectArrayI38btDeformableNodeRigidContactConstraintE4sizeEv(ptr noundef nonnull align 8 dereferenceable(25) %call9)
  %cmp11 = icmp slt i32 %11, %call10
  br i1 %cmp11, label %for.body12, label %for.end

for.body12:                                       ; preds = %for.cond8
  %m_nodeRigidConstraints13 = getelementptr inbounds %class.btDeformableContactProjection, ptr %this1, i32 0, i32 6
  %13 = load i32, ptr %j, align 4
  %call14 = call noundef nonnull align 8 dereferenceable(25) ptr @_ZN20btAlignedObjectArrayIS_I38btDeformableNodeRigidContactConstraintEEixEi(ptr noundef nonnull align 8 dereferenceable(25) %m_nodeRigidConstraints13, i32 noundef %13)
  %14 = load i32, ptr %k, align 4
  %call15 = call noundef nonnull align 8 dereferenceable(104) ptr @_ZN20btAlignedObjectArrayI38btDeformableNodeRigidContactConstraintEixEi(ptr noundef nonnull align 8 dereferenceable(25) %call14, i32 noundef %14)
  store ptr %call15, ptr %constraint, align 8
  %15 = load ptr, ptr %constraint, align 8
  %16 = load ptr, ptr %infoGlobal.addr, align 8
  %call16 = call noundef float @_ZN34btDeformableRigidContactConstraint17solveSplitImpulseERK19btContactSolverInfo(ptr noundef nonnull align 8 dereferenceable(96) %15, ptr noundef nonnull align 4 dereferenceable(128) %16)
  store float %call16, ptr %localResidualSquare, align 4
  %call17 = call noundef nonnull align 4 dereferenceable(4) ptr @_Z5btMaxIfERKT_S2_S2_(ptr noundef nonnull align 4 dereferenceable(4) %residualSquare, ptr noundef nonnull align 4 dereferenceable(4) %localResidualSquare)
  %17 = load float, ptr %call17, align 4
  store float %17, ptr %residualSquare, align 4
  br label %for.inc

for.inc:                                          ; preds = %for.body12
  %18 = load i32, ptr %k, align 4
  %inc = add nsw i32 %18, 1
  store i32 %inc, ptr %k, align 4
  br label %for.cond8, !llvm.loop !26

for.end:                                          ; preds = %for.cond8
  store i32 0, ptr %k18, align 4
  br label %for.cond19

for.cond19:                                       ; preds = %for.inc31, %for.end
  %19 = load i32, ptr %k18, align 4
  %m_faceRigidConstraints = getelementptr inbounds %class.btDeformableContactProjection, ptr %this1, i32 0, i32 7
  %20 = load i32, ptr %j, align 4
  %call20 = call noundef nonnull align 8 dereferenceable(25) ptr @_ZN20btAlignedObjectArrayIS_I38btDeformableFaceRigidContactConstraintEEixEi(ptr noundef nonnull align 8 dereferenceable(25) %m_faceRigidConstraints, i32 noundef %20)
  %call21 = call noundef i32 @_ZNK20btAlignedObjectArrayI38btDeformableFaceRigidContactConstraintE4sizeEv(ptr noundef nonnull align 8 dereferenceable(25) %call20)
  %cmp22 = icmp slt i32 %19, %call21
  br i1 %cmp22, label %for.body23, label %for.end33

for.body23:                                       ; preds = %for.cond19
  %m_faceRigidConstraints25 = getelementptr inbounds %class.btDeformableContactProjection, ptr %this1, i32 0, i32 7
  %21 = load i32, ptr %j, align 4
  %call26 = call noundef nonnull align 8 dereferenceable(25) ptr @_ZN20btAlignedObjectArrayIS_I38btDeformableFaceRigidContactConstraintEEixEi(ptr noundef nonnull align 8 dereferenceable(25) %m_faceRigidConstraints25, i32 noundef %21)
  %22 = load i32, ptr %k18, align 4
  %call27 = call noundef nonnull align 8 dereferenceable(105) ptr @_ZN20btAlignedObjectArrayI38btDeformableFaceRigidContactConstraintEixEi(ptr noundef nonnull align 8 dereferenceable(25) %call26, i32 noundef %22)
  store ptr %call27, ptr %constraint24, align 8
  %23 = load ptr, ptr %constraint24, align 8
  %24 = load ptr, ptr %infoGlobal.addr, align 8
  %call29 = call noundef float @_ZN34btDeformableRigidContactConstraint17solveSplitImpulseERK19btContactSolverInfo(ptr noundef nonnull align 8 dereferenceable(96) %23, ptr noundef nonnull align 4 dereferenceable(128) %24)
  store float %call29, ptr %localResidualSquare28, align 4
  %call30 = call noundef nonnull align 4 dereferenceable(4) ptr @_Z5btMaxIfERKT_S2_S2_(ptr noundef nonnull align 4 dereferenceable(4) %residualSquare, ptr noundef nonnull align 4 dereferenceable(4) %localResidualSquare28)
  %25 = load float, ptr %call30, align 4
  store float %25, ptr %residualSquare, align 4
  br label %for.inc31

for.inc31:                                        ; preds = %for.body23
  %26 = load i32, ptr %k18, align 4
  %inc32 = add nsw i32 %26, 1
  store i32 %inc32, ptr %k18, align 4
  br label %for.cond19, !llvm.loop !27

for.end33:                                        ; preds = %for.cond19
  br label %for.inc34

for.inc34:                                        ; preds = %for.end33, %if.then
  %27 = load i32, ptr %j, align 4
  %inc35 = add nsw i32 %27, 1
  store i32 %inc35, ptr %j, align 4
  br label %for.cond2, !llvm.loop !28

for.end36:                                        ; preds = %for.cond2
  br label %for.inc37

for.inc37:                                        ; preds = %for.end36
  %28 = load i32, ptr %i, align 4
  %inc38 = add nsw i32 %28, 1
  store i32 %inc38, ptr %i, align 4
  br label %for.cond, !llvm.loop !29

for.end39:                                        ; preds = %for.cond
  %29 = load float, ptr %residualSquare, align 4
  ret float %29
}