; Function Attrs: mustprogress uwtable
define dso_local noundef float @_ZN29btDeformableContactProjection17solveSplitImpulseEPP17btCollisionObjectiRK19btContactSolverInfo(ptr nocapture noundef nonnull readonly align 8 dereferenceable(369) %this, ptr nocapture noundef readonly %deformableBodies, i32 noundef %numDeformableBodies, ptr noundef nonnull align 4 dereferenceable(128) %infoGlobal) local_unnamed_addr #3 align 2 {
entry:
  %cmp58 = icmp sgt i32 %numDeformableBodies, 0
  br i1 %cmp58, label %for.cond2.preheader.lr.ph, label %for.end39

for.cond2.preheader.lr.ph:                        ; preds = %entry
  %m_softBodies = getelementptr inbounds i8, ptr %this, i64 8
  %m_data.i14 = getelementptr inbounds i8, ptr %this, i64 256
  %m_data.i24 = getelementptr inbounds i8, ptr %this, i64 288
  %0 = load ptr, ptr %m_softBodies, align 8
  %1 = getelementptr inbounds i8, ptr %0, i64 4
  %2 = load i32, ptr %1, align 4
  %3 = icmp sgt i32 %2, 0
  br i1 %3, label %for.cond2.preheader.preheader, label %for.end39

for.cond2.preheader.preheader:                    ; preds = %for.cond2.preheader.lr.ph
  %wide.trip.count = zext nneg i32 %numDeformableBodies to i64
  br label %for.cond2.preheader

for.cond2.preheader:                              ; preds = %for.cond2.preheader.preheader, %for.inc37
  %4 = phi ptr [ %0, %for.cond2.preheader.preheader ], [ %27, %for.inc37 ]
  %indvars.iv70 = phi i64 [ 0, %for.cond2.preheader.preheader ], [ %indvars.iv.next71, %for.inc37 ]
  %residualSquare.059 = phi float [ 0.000000e+00, %for.cond2.preheader.preheader ], [ %residualSquare.1.lcssa, %for.inc37 ]
  %m_size.i53 = getelementptr inbounds i8, ptr %4, i64 4
  %5 = load i32, ptr %m_size.i53, align 4
  %cmp354 = icmp sgt i32 %5, 0
  br i1 %cmp354, label %for.body4.lr.ph, label %for.inc37

for.body4.lr.ph:                                  ; preds = %for.cond2.preheader
  %arrayidx = getelementptr inbounds ptr, ptr %deformableBodies, i64 %indvars.iv70
  br label %for.body4

for.body4:                                        ; preds = %for.body4.lr.ph, %for.inc34
  %indvars.iv67 = phi i64 [ 0, %for.body4.lr.ph ], [ %indvars.iv.next68, %for.inc34 ]
  %6 = phi ptr [ %4, %for.body4.lr.ph ], [ %24, %for.inc34 ]
  %residualSquare.155 = phi float [ %residualSquare.059, %for.body4.lr.ph ], [ %residualSquare.4, %for.inc34 ]
  %m_data.i = getelementptr inbounds i8, ptr %6, i64 16
  %7 = load ptr, ptr %m_data.i, align 8
  %arrayidx.i = getelementptr inbounds ptr, ptr %7, i64 %indvars.iv67
  %8 = load ptr, ptr %arrayidx.i, align 8
  %9 = load ptr, ptr %arrayidx, align 8
  %cmp7.not = icmp eq ptr %8, %9
  br i1 %cmp7.not, label %for.cond8.preheader, label %for.inc34

for.cond8.preheader:                              ; preds = %for.body4
  %10 = load ptr, ptr %m_data.i14, align 8
  %m_size.i1741 = getelementptr inbounds %class.btAlignedObjectArray.152, ptr %10, i64 %indvars.iv67, i32 2
  %11 = load i32, ptr %m_size.i1741, align 4
  %cmp1142 = icmp sgt i32 %11, 0
  br i1 %cmp1142, label %for.body12, label %for.cond19.preheader

for.cond19.preheader:                             ; preds = %for.body12, %for.cond8.preheader
  %residualSquare.2.lcssa = phi float [ %residualSquare.155, %for.cond8.preheader ], [ %.sroa.speculated37, %for.body12 ]
  %12 = load ptr, ptr %m_data.i24, align 8
  %m_size.i2747 = getelementptr inbounds %class.btAlignedObjectArray.160, ptr %12, i64 %indvars.iv67, i32 2
  %13 = load i32, ptr %m_size.i2747, align 4
  %cmp2248 = icmp sgt i32 %13, 0
  br i1 %cmp2248, label %for.body23, label %for.inc34

for.body12:                                       ; preds = %for.cond8.preheader, %for.body12
  %indvars.iv = phi i64 [ %indvars.iv.next, %for.body12 ], [ 0, %for.cond8.preheader ]
  %14 = phi ptr [ %16, %for.body12 ], [ %10, %for.cond8.preheader ]
  %residualSquare.243 = phi float [ %.sroa.speculated37, %for.body12 ], [ %residualSquare.155, %for.cond8.preheader ]
  %m_data.i21 = getelementptr inbounds %class.btAlignedObjectArray.152, ptr %14, i64 %indvars.iv67, i32 5
  %15 = load ptr, ptr %m_data.i21, align 8
  %arrayidx.i23 = getelementptr inbounds %class.btDeformableNodeRigidContactConstraint, ptr %15, i64 %indvars.iv
  %call16 = tail call noundef float @_ZN34btDeformableRigidContactConstraint17solveSplitImpulseERK19btContactSolverInfo(ptr noundef nonnull align 8 dereferenceable(96) %arrayidx.i23, ptr noundef nonnull align 4 dereferenceable(128) %infoGlobal)
  %cmp.i = fcmp ogt float %residualSquare.243, %call16
  %.sroa.speculated37 = select i1 %cmp.i, float %residualSquare.243, float %call16
  %indvars.iv.next = add nuw nsw i64 %indvars.iv, 1
  %16 = load ptr, ptr %m_data.i14, align 8
  %m_size.i17 = getelementptr inbounds %class.btAlignedObjectArray.152, ptr %16, i64 %indvars.iv67, i32 2
  %17 = load i32, ptr %m_size.i17, align 4
  %18 = sext i32 %17 to i64
  %cmp11 = icmp slt i64 %indvars.iv.next, %18
  br i1 %cmp11, label %for.body12, label %for.cond19.preheader, !llvm.loop !31

for.body23:                                       ; preds = %for.cond19.preheader, %for.body23
  %indvars.iv64 = phi i64 [ %indvars.iv.next65, %for.body23 ], [ 0, %for.cond19.preheader ]
  %19 = phi ptr [ %21, %for.body23 ], [ %12, %for.cond19.preheader ]
  %residualSquare.349 = phi float [ %.sroa.speculated, %for.body23 ], [ %residualSquare.2.lcssa, %for.cond19.preheader ]
  %m_data.i31 = getelementptr inbounds %class.btAlignedObjectArray.160, ptr %19, i64 %indvars.iv67, i32 5
  %20 = load ptr, ptr %m_data.i31, align 8
  %arrayidx.i33 = getelementptr inbounds %class.btDeformableFaceRigidContactConstraint, ptr %20, i64 %indvars.iv64
  %call29 = tail call noundef float @_ZN34btDeformableRigidContactConstraint17solveSplitImpulseERK19btContactSolverInfo(ptr noundef nonnull align 8 dereferenceable(96) %arrayidx.i33, ptr noundef nonnull align 4 dereferenceable(128) %infoGlobal)
  %cmp.i34 = fcmp ogt float %residualSquare.349, %call29
  %.sroa.speculated = select i1 %cmp.i34, float %residualSquare.349, float %call29
  %indvars.iv.next65 = add nuw nsw i64 %indvars.iv64, 1
  %21 = load ptr, ptr %m_data.i24, align 8
  %m_size.i27 = getelementptr inbounds %class.btAlignedObjectArray.160, ptr %21, i64 %indvars.iv67, i32 2
  %22 = load i32, ptr %m_size.i27, align 4
  %23 = sext i32 %22 to i64
  %cmp22 = icmp slt i64 %indvars.iv.next65, %23
  br i1 %cmp22, label %for.body23, label %for.inc34, !llvm.loop !32

for.inc34:                                        ; preds = %for.body23, %for.cond19.preheader, %for.body4
  %residualSquare.4 = phi float [ %residualSquare.155, %for.body4 ], [ %residualSquare.2.lcssa, %for.cond19.preheader ], [ %.sroa.speculated, %for.body23 ]
  %indvars.iv.next68 = add nuw nsw i64 %indvars.iv67, 1
  %24 = load ptr, ptr %m_softBodies, align 8
  %m_size.i = getelementptr inbounds i8, ptr %24, i64 4
  %25 = load i32, ptr %m_size.i, align 4
  %26 = sext i32 %25 to i64
  %cmp3 = icmp slt i64 %indvars.iv.next68, %26
  br i1 %cmp3, label %for.body4, label %for.inc37, !llvm.loop !33

for.inc37:                                        ; preds = %for.inc34, %for.cond2.preheader
  %27 = phi ptr [ %4, %for.cond2.preheader ], [ %24, %for.inc34 ]
  %residualSquare.1.lcssa = phi float [ %residualSquare.059, %for.cond2.preheader ], [ %residualSquare.4, %for.inc34 ]
  %indvars.iv.next71 = add nuw nsw i64 %indvars.iv70, 1
  %exitcond.not = icmp eq i64 %indvars.iv.next71, %wide.trip.count
  br i1 %exitcond.not, label %for.end39, label %for.cond2.preheader, !llvm.loop !34

for.end39:                                        ; preds = %for.inc37, %for.cond2.preheader.lr.ph, %entry
  %residualSquare.0.lcssa = phi float [ 0.000000e+00, %entry ], [ 0.000000e+00, %for.cond2.preheader.lr.ph ], [ %residualSquare.1.lcssa, %for.inc37 ]
  ret float %residualSquare.0.lcssa
}